target datalayout = "e-m:e-p270:32:32-p271:32:32-p272:64:64-i64:64-i128:128-f80:128-n8:16:32:64-S128"
target triple = "x86_64-pc-linux-gnu"

%struct.assoc_mgr_lock_t = type { i32, i32, i32, i32, i32, i32, i32 }
%struct.slurm_conf_t = type { i64, ptr, i16, ptr, ptr, ptr, ptr, ptr, i16, ptr, ptr, ptr, ptr, ptr, ptr, ptr, i16, ptr, ptr, ptr, ptr, i16, ptr, ptr, ptr, i64, ptr, ptr, ptr, ptr, i16, ptr, ptr, i16, i32, ptr, i32, ptr, i32, i32, ptr, ptr, i64, i64, ptr, i16, i16, ptr, i32, i32, ptr, i32, ptr, i32, i16, i16, i16, ptr, i16, i16, ptr, ptr, i32, i16, i16, ptr, i32, i16, ptr, ptr, ptr, ptr, i16, ptr, ptr, ptr, ptr, i32, ptr, ptr, ptr, ptr, i16, i16, ptr, i32, i32, i32, i16, i16, ptr, ptr, i16, ptr, ptr, i32, i32, i32, i32, i32, i64, i32, i32, i16, ptr, ptr, i32, ptr, ptr, ptr, i16, i32, ptr, ptr, i16, ptr, ptr, i32, i16, ptr, ptr, ptr, ptr, i32, i32, i16, i16, i32, ptr, i16, ptr, i32, i32, i32, i32, i32, i32, ptr, i16, ptr, ptr, i32, i16, ptr, i32, i16, i16, ptr, ptr, ptr, i16, ptr, ptr, ptr, ptr, i16, i16, ptr, i16, ptr, i16, ptr, i16, ptr, i16, ptr, ptr, ptr, ptr, i16, ptr, ptr, ptr, i32, ptr, i32, ptr, ptr, i16, ptr, ptr, i32, i16, ptr, ptr, i16, i16, ptr, i16, ptr, ptr, ptr, i32, ptr, i16, i16, ptr, ptr, ptr, ptr, ptr, ptr, ptr, ptr, i16, i32, i16, ptr, ptr, ptr, ptr, i32, ptr, ptr, ptr, i16, ptr, ptr, ptr, i16, ptr, i16, ptr, i16, i16, ptr }
%struct.job_record = type { i32, ptr, ptr, ptr, ptr, i16, i32, i32, i32, ptr, i32, ptr, ptr, i16, ptr, double, i64, ptr, ptr, ptr, ptr, ptr, ptr, i32, ptr, i32, i64, i64, i32, i32, ptr, i16, i64, i64, i8, i32, ptr, ptr, ptr, ptr, ptr, ptr, ptr, ptr, i32, ptr, ptr, i32, ptr, i32, ptr, i32, ptr, i32, ptr, ptr, ptr, ptr, ptr, ptr, i32, i16, i64, ptr, ptr, ptr, ptr, %struct.acct_policy_limit_set_t, i16, ptr, ptr, ptr, ptr, ptr, i32, ptr, ptr, ptr, ptr, ptr, i32, i32, ptr, ptr, ptr, i16, ptr, ptr, i8, ptr, ptr, i64, i64, i8, i32, i32, i8, i32, ptr, i32, i64, i32, ptr, ptr, ptr, i8, i16, i64, i32, ptr, ptr, ptr, ptr, ptr, i16, i32, ptr, ptr, ptr, ptr, i32, ptr, i32, i16, i64, ptr, i32, i32, ptr, i64, ptr, ptr, i64, i32, i32, i64, i32, i32, ptr, ptr, ptr, ptr, ptr, ptr, ptr, ptr, ptr, ptr, ptr, ptr, i32, ptr, i16, i16, i16, i16, ptr, i32, i32, i8, i64 }
%struct.acct_policy_limit_set_t = type { i16, i16, ptr }
%struct.slurmdb_qos_rec_t = type { i64, ptr, i32, i32, i32, i32, i32, i32, ptr, ptr, ptr, ptr, ptr, ptr, i32, double, i32, i32, i32, i32, i32, i32, ptr, ptr, ptr, ptr, ptr, ptr, ptr, ptr, ptr, ptr, ptr, ptr, ptr, ptr, i32, i32, ptr, ptr, ptr, ptr, ptr, i16, i32, i32, ptr, ptr, double, double }
%struct.slurmdb_assoc_rec = type { ptr, ptr, ptr, ptr, ptr, ptr, ptr, i32, i32, i32, i32, i32, ptr, ptr, ptr, ptr, ptr, ptr, i32, i32, i16, ptr, ptr, i32, i32, i32, ptr, ptr, ptr, ptr, ptr, ptr, ptr, ptr, i32, i32, ptr, i32, ptr, i32, ptr, i32, i32, ptr, ptr, ptr }
%struct.job_details_t = type { i32, ptr, i64, ptr, i32, ptr, i64, ptr, i16, i16, ptr, i16, i32, i32, i32, i16, ptr, i16, ptr, ptr, ptr, i16, ptr, ptr, ptr, ptr, i32, ptr, ptr, ptr, ptr, ptr, i32, i32, i32, ptr, ptr, i16, i32, i32, i32, i32, i32, i32, i16, i16, i32, i8, i8, i32, i32, i64, i64, i16, i32, ptr, ptr, i8, ptr, i32, ptr, i64, ptr, ptr, i16, i16, i16, i8, ptr, ptr, ptr, ptr, ptr, ptr, i64, i32, i32, i8, ptr, i16, ptr, ptr, i16 }
%struct.acct_policy_accrue_t = type { ptr, ptr, i32, ptr, i8, i64, ptr, i32, ptr, ptr }

@accounting_enforce = external global i16, align 2
@__const.acct_policy_handle_accrue_time.locks = private unnamed_addr constant %struct.assoc_mgr_lock_t { i32 2, i32 0, i32 2, i32 0, i32 0, i32 0, i32 0 }, align 4
@.str.27 = private unnamed_addr constant [15 x i8] c"%s: no details\00", align 1
@__func__.acct_policy_handle_accrue_time = private unnamed_addr constant [31 x i8] c"acct_policy_handle_accrue_time\00", align 1
@slurm_conf = external global %struct.slurm_conf_t, align 8
@.str.28 = private unnamed_addr constant [162 x i8] c"%s: no assoc_ptr, this usually means the association was removed right after the job (%pJ) was started, but didn't make it to the database before it was removed.\00", align 1

; Function Attrs: nounwind uwtable
define dso_local i32 @acct_policy_handle_accrue_time(ptr noundef %0, i1 noundef zeroext %1) #0 {
  %3 = alloca i32, align 4
  %4 = alloca ptr, align 8
  %5 = alloca i8, align 1
  %6 = alloca ptr, align 8
  %7 = alloca i32, align 4
  %8 = alloca i64, align 8
  %9 = alloca %struct.assoc_mgr_lock_t, align 4
  %10 = alloca i32, align 4
  %11 = alloca ptr, align 8
  %12 = alloca %struct.acct_policy_accrue_t, align 8
  store ptr %0, ptr %4, align 8
  %13 = zext i1 %1 to i8
  store i8 %13, ptr %5, align 1
  call void @llvm.lifetime.start.p0(i64 8, ptr %6) #8
  call void @llvm.lifetime.start.p0(i64 4, ptr %7) #8
  store i32 0, ptr %7, align 4
  call void @llvm.lifetime.start.p0(i64 8, ptr %8) #8
  %14 = call i64 @time(ptr noundef null) #8
  store i64 %14, ptr %8, align 8
  call void @llvm.lifetime.start.p0(i64 28, ptr %9) #8
  call void @llvm.memcpy.p0.p0.i64(ptr align 4 %9, ptr align 4 @__const.acct_policy_handle_accrue_time.locks, i64 28, i1 false)
  %15 = load ptr, ptr %4, align 8
  %16 = getelementptr inbounds nuw %struct.job_record, ptr %15, i32 0, i32 30
  %17 = load ptr, ptr %16, align 8
  store ptr %17, ptr %6, align 8
  %18 = load ptr, ptr %6, align 8
  %19 = icmp ne ptr %18, null
  br i1 %19, label %22, label %20

20:                                               ; preds = %2
  %21 = call i32 (ptr, ...) @error(ptr noundef @.str.27, ptr noundef @__func__.acct_policy_handle_accrue_time)
  store i32 -1, ptr %3, align 4
  store i32 1, ptr %10, align 4
  br label %164

22:                                               ; preds = %2
  %23 = load i16, ptr getelementptr inbounds nuw (%struct.slurm_conf_t, ptr @slurm_conf, i32 0, i32 126), align 2
  %24 = zext i16 %23 to i64
  %25 = and i64 %24, 1
  %26 = icmp ne i64 %25, 0
  br i1 %26, label %27, label %39

27:                                               ; preds = %22
  %28 = load ptr, ptr %6, align 8
  %29 = getelementptr inbounds nuw %struct.job_details_t, ptr %28, i32 0, i32 2
  %30 = load i64, ptr %29, align 8
  %31 = icmp ne i64 %30, 0
  br i1 %31, label %38, label %32

32:                                               ; preds = %27
  %33 = load ptr, ptr %6, align 8
  %34 = getelementptr inbounds nuw %struct.job_details_t, ptr %33, i32 0, i32 74
  %35 = load i64, ptr %34, align 8
  %36 = load ptr, ptr %6, align 8
  %37 = getelementptr inbounds nuw %struct.job_details_t, ptr %36, i32 0, i32 2
  store i64 %35, ptr %37, align 8
  br label %38

38:                                               ; preds = %32, %27
  store i32 0, ptr %3, align 4
  store i32 1, ptr %10, align 4
  br label %164

39:                                               ; preds = %22
  %40 = load i16, ptr @accounting_enforce, align 2
  %41 = zext i16 %40 to i64
  %42 = and i64 %41, 2
  %43 = icmp ne i64 %42, 0
  br i1 %43, label %56, label %44

44:                                               ; preds = %39
  %45 = load ptr, ptr %6, align 8
  %46 = getelementptr inbounds nuw %struct.job_details_t, ptr %45, i32 0, i32 2
  %47 = load i64, ptr %46, align 8
  %48 = icmp ne i64 %47, 0
  br i1 %48, label %55, label %49

49:                                               ; preds = %44
  %50 = load ptr, ptr %6, align 8
  %51 = getelementptr inbounds nuw %struct.job_details_t, ptr %50, i32 0, i32 6
  %52 = load i64, ptr %51, align 8
  %53 = load ptr, ptr %6, align 8
  %54 = getelementptr inbounds nuw %struct.job_details_t, ptr %53, i32 0, i32 2
  store i64 %52, ptr %54, align 8
  br label %55

55:                                               ; preds = %49, %44
  store i32 0, ptr %3, align 4
  store i32 1, ptr %10, align 4
  br label %164

56:                                               ; preds = %39
  %57 = load ptr, ptr %4, align 8
  %58 = getelementptr inbounds nuw %struct.job_record, ptr %57, i32 0, i32 97
  %59 = load i32, ptr %58, align 8
  %60 = icmp ne i32 %59, 0
  br i1 %60, label %61, label %78

61:                                               ; preds = %56
  %62 = load ptr, ptr %4, align 8
  %63 = getelementptr inbounds nuw %struct.job_record, ptr %62, i32 0, i32 16
  %64 = load i64, ptr %63, align 8
  %65 = and i64 %64, 536870912
  %66 = icmp ne i64 %65, 0
  br i1 %66, label %78, label %67

67:                                               ; preds = %61
  %68 = load ptr, ptr %6, align 8
  %69 = getelementptr inbounds nuw %struct.job_details_t, ptr %68, i32 0, i32 6
  %70 = load i64, ptr %69, align 8
  %71 = icmp ne i64 %70, 0
  br i1 %71, label %72, label %79

72:                                               ; preds = %67
  %73 = load ptr, ptr %6, align 8
  %74 = getelementptr inbounds nuw %struct.job_details_t, ptr %73, i32 0, i32 6
  %75 = load i64, ptr %74, align 8
  %76 = load i64, ptr %8, align 8
  %77 = icmp sgt i64 %75, %76
  br i1 %77, label %78, label %79

78:                                               ; preds = %72, %61, %56
  store i32 0, ptr %3, align 4
  store i32 1, ptr %10, align 4
  br label %164

79:                                               ; preds = %72, %67
  %80 = load ptr, ptr %6, align 8
  %81 = getelementptr inbounds nuw %struct.job_details_t, ptr %80, i32 0, i32 2
  %82 = load i64, ptr %81, align 8
  %83 = icmp ne i64 %82, 0
  br i1 %83, label %91, label %84

84:                                               ; preds = %79
  %85 = load ptr, ptr %4, align 8
  %86 = getelementptr inbounds nuw %struct.job_record, ptr %85, i32 0, i32 60
  %87 = load i32, ptr %86, align 8
  %88 = and i32 %87, 255
  %89 = icmp eq i32 %88, 0
  br i1 %89, label %91, label %90

90:                                               ; preds = %84
  store i32 0, ptr %3, align 4
  store i32 1, ptr %10, align 4
  br label %164

91:                                               ; preds = %84, %79
  %92 = load i8, ptr %5, align 1, !range !8, !noundef !9
  %93 = trunc i8 %92 to i1
  br i1 %93, label %95, label %94

94:                                               ; preds = %91
  call void @assoc_mgr_lock(ptr noundef %9)
  br label %95

95:                                               ; preds = %94, %91
  %96 = load ptr, ptr %4, align 8
  %97 = getelementptr inbounds nuw %struct.job_record, ptr %96, i32 0, i32 11
  %98 = load ptr, ptr %97, align 8
  %99 = icmp ne ptr %98, null
  br i1 %99, label %112, label %100

100:                                              ; preds = %95
  br label %101

101:                                              ; preds = %100
  br label %102

102:                                              ; preds = %101
  %103 = call i32 @get_log_level()
  %104 = icmp sge i32 %103, 5
  br i1 %104, label %105, label %107

105:                                              ; preds = %102
  %106 = load ptr, ptr %4, align 8
  call void (i32, ptr, ...) @log_var(i32 noundef 5, ptr noundef @.str.28, ptr noundef @__func__.acct_policy_handle_accrue_time, ptr noundef %106)
  br label %107

107:                                              ; preds = %105, %102
  br label %108

108:                                              ; preds = %107
  br label %109

109:                                              ; preds = %108
  br label %110

110:                                              ; preds = %109
  br label %111

111:                                              ; preds = %110
  store i32 -1, ptr %7, align 4
  br label %158

112:                                              ; preds = %95
  call void @llvm.lifetime.start.p0(i64 8, ptr %11) #8
  %113 = load ptr, ptr %4, align 8
  %114 = getelementptr inbounds nuw %struct.job_record, ptr %113, i32 0, i32 103
  %115 = load ptr, ptr %114, align 8
  store ptr %115, ptr %11, align 8
  call void @llvm.lifetime.start.p0(i64 80, ptr %12) #8
  %116 = getelementptr inbounds nuw %struct.acct_policy_accrue_t, ptr %12, i32 0, i32 0
  %117 = load ptr, ptr %4, align 8
  %118 = getelementptr inbounds nuw %struct.job_record, ptr %117, i32 0, i32 11
  %119 = load ptr, ptr %118, align 8
  %120 = getelementptr inbounds nuw %struct.slurmdb_assoc_rec, ptr %119, i32 0, i32 1
  %121 = load ptr, ptr %120, align 8
  store ptr %121, ptr %116, align 8
  %122 = getelementptr inbounds nuw %struct.acct_policy_accrue_t, ptr %12, i32 0, i32 1
  %123 = load ptr, ptr %4, align 8
  %124 = getelementptr inbounds nuw %struct.job_record, ptr %123, i32 0, i32 11
  %125 = load ptr, ptr %124, align 8
  store ptr %125, ptr %122, align 8
  %126 = getelementptr inbounds nuw %struct.acct_policy_accrue_t, ptr %12, i32 0, i32 2
  store i32 0, ptr %126, align 8
  %127 = getelementptr i8, ptr %12, i64 20
  call void @llvm.memset.p0.i64(ptr align 4 %127, i8 0, i64 4, i1 false)
  %128 = getelementptr inbounds nuw %struct.acct_policy_accrue_t, ptr %12, i32 0, i32 3
  %129 = load ptr, ptr %4, align 8
  store ptr %129, ptr %128, align 8
  %130 = getelementptr inbounds nuw %struct.acct_policy_accrue_t, ptr %12, i32 0, i32 4
  store i8 0, ptr %130, align 8
  %131 = getelementptr i8, ptr %12, i64 33
  call void @llvm.memset.p0.i64(ptr align 1 %131, i8 0, i64 7, i1 false)
  %132 = getelementptr inbounds nuw %struct.acct_policy_accrue_t, ptr %12, i32 0, i32 5
  %133 = load i64, ptr %8, align 8
  store i64 %133, ptr %132, align 8
  %134 = getelementptr inbounds nuw %struct.acct_policy_accrue_t, ptr %12, i32 0, i32 6
  store ptr null, ptr %134, align 8
  %135 = getelementptr inbounds nuw %struct.acct_policy_accrue_t, ptr %12, i32 0, i32 7
  %136 = load ptr, ptr %4, align 8
  %137 = getelementptr inbounds nuw %struct.job_record, ptr %136, i32 0, i32 150
  %138 = load i32, ptr %137, align 8
  store i32 %138, ptr %135, align 8
  %139 = getelementptr i8, ptr %12, i64 60
  call void @llvm.memset.p0.i64(ptr align 4 %139, i8 0, i64 4, i1 false)
  %140 = getelementptr inbounds nuw %struct.acct_policy_accrue_t, ptr %12, i32 0, i32 8
  store ptr null, ptr %140, align 8
  %141 = getelementptr inbounds nuw %struct.acct_policy_accrue_t, ptr %12, i32 0, i32 9
  store ptr null, ptr %141, align 8
  %142 = load ptr, ptr %4, align 8
  call void @_set_highest_prio_qos_ptr(ptr noundef %142)
  call void @_handle_accrue_time(ptr noundef %12)
  %143 = load ptr, ptr %4, align 8
  %144 = getelementptr inbounds nuw %struct.job_record, ptr %143, i32 0, i32 103
  %145 = load ptr, ptr %144, align 8
  %146 = load ptr, ptr %11, align 8
  %147 = icmp ne ptr %145, %146
  br i1 %147, label %148, label %157

148:                                              ; preds = %112
  %149 = load ptr, ptr %11, align 8
  %150 = load ptr, ptr %4, align 8
  %151 = getelementptr inbounds nuw %struct.job_record, ptr %150, i32 0, i32 103
  store ptr %149, ptr %151, align 8
  %152 = load ptr, ptr %11, align 8
  %153 = getelementptr inbounds nuw %struct.slurmdb_qos_rec_t, ptr %152, i32 0, i32 2
  %154 = load i32, ptr %153, align 8
  %155 = load ptr, ptr %4, align 8
  %156 = getelementptr inbounds nuw %struct.job_record, ptr %155, i32 0, i32 101
  store i32 %154, ptr %156, align 8
  br label %157

157:                                              ; preds = %148, %112
  call void @llvm.lifetime.end.p0(i64 80, ptr %12) #8
  call void @llvm.lifetime.end.p0(i64 8, ptr %11) #8
  br label %158

158:                                              ; preds = %157, %111
  %159 = load i8, ptr %5, align 1, !range !8, !noundef !9
  %160 = trunc i8 %159 to i1
  br i1 %160, label %162, label %161

161:                                              ; preds = %158
  call void @assoc_mgr_unlock(ptr noundef %9)
  br label %162

162:                                              ; preds = %161, %158
  %163 = load i32, ptr %7, align 4
  store i32 %163, ptr %3, align 4
  store i32 1, ptr %10, align 4
  br label %164

164:                                              ; preds = %162, %90, %78, %55, %38, %20
  call void @llvm.lifetime.end.p0(i64 28, ptr %9) #8
  call void @llvm.lifetime.end.p0(i64 8, ptr %8) #8
  call void @llvm.lifetime.end.p0(i64 4, ptr %7) #8
  call void @llvm.lifetime.end.p0(i64 8, ptr %6) #8
  %165 = load i32, ptr %3, align 4
  ret i32 %165
}