; Function Attrs: nounwind uwtable
define dso_local range(i32 -1, 1) i32 @acct_policy_handle_accrue_time(ptr noundef %0, i1 noundef zeroext %1) local_unnamed_addr #0 {
  %3 = alloca %struct.assoc_mgr_lock_t, align 4
  %4 = alloca %struct.acct_policy_accrue_t, align 8
  %5 = tail call i64 @time(ptr noundef null) #15
  call void @llvm.lifetime.start.p0(i64 28, ptr nonnull %3) #15
  call void @llvm.memcpy.p0.p0.i64(ptr noundef nonnull align 4 dereferenceable(28) %3, ptr noundef nonnull align 4 dereferenceable(28) @__const.acct_policy_remove_accrue_time.locks, i64 28, i1 false)
  %6 = getelementptr inbounds nuw i8, ptr %0, i64 216
  %7 = load ptr, ptr %6, align 8
  %.not = icmp eq ptr %7, null
  br i1 %.not, label %8, label %10

8:                                                ; preds = %2
  %9 = tail call i32 (ptr, ...) @error(ptr noundef nonnull @.str.27, ptr noundef nonnull @__func__.acct_policy_handle_accrue_time) #15
  br label %80

10:                                               ; preds = %2
  %11 = load i16, ptr getelementptr inbounds nuw (i8, ptr @slurm_conf, i64 842), align 2
  %12 = and i16 %11, 1
  %.not37 = icmp eq i16 %12, 0
  br i1 %.not37, label %19, label %13

13:                                               ; preds = %10
  %14 = getelementptr inbounds nuw i8, ptr %7, i64 16
  %15 = load i64, ptr %14, align 8
  %.not46 = icmp eq i64 %15, 0
  br i1 %.not46, label %16, label %80

16:                                               ; preds = %13
  %17 = getelementptr inbounds nuw i8, ptr %7, i64 464
  %18 = load i64, ptr %17, align 8
  store i64 %18, ptr %14, align 8
  br label %80

19:                                               ; preds = %10
  %20 = load i16, ptr @accounting_enforce, align 2
  %21 = and i16 %20, 2
  %.not38 = icmp eq i16 %21, 0
  br i1 %.not38, label %22, label %28

22:                                               ; preds = %19
  %23 = getelementptr inbounds nuw i8, ptr %7, i64 16
  %24 = load i64, ptr %23, align 8
  %.not39 = icmp eq i64 %24, 0
  br i1 %.not39, label %25, label %80

25:                                               ; preds = %22
  %26 = getelementptr inbounds nuw i8, ptr %7, i64 48
  %27 = load i64, ptr %26, align 8
  store i64 %27, ptr %23, align 8
  br label %80

28:                                               ; preds = %19
  %29 = getelementptr inbounds nuw i8, ptr %0, i64 720
  %30 = load i32, ptr %29, align 8
  %.not40 = icmp eq i32 %30, 0
  br i1 %.not40, label %80, label %31

31:                                               ; preds = %28
  %32 = getelementptr inbounds nuw i8, ptr %0, i64 112
  %33 = load i64, ptr %32, align 8
  %34 = and i64 %33, 536870912
  %.not41 = icmp eq i64 %34, 0
  br i1 %.not41, label %35, label %80

35:                                               ; preds = %31
  %36 = getelementptr inbounds nuw i8, ptr %7, i64 48
  %37 = load i64, ptr %36, align 8
  %.not42 = icmp ne i64 %37, 0
  %38 = icmp sgt i64 %37, %5
  %or.cond = select i1 %.not42, i1 %38, i1 false
  br i1 %or.cond, label %80, label %39

39:                                               ; preds = %35
  %40 = getelementptr inbounds nuw i8, ptr %7, i64 16
  %41 = load i64, ptr %40, align 8
  %.not43 = icmp eq i64 %41, 0
  br i1 %.not43, label %42, label %47

42:                                               ; preds = %39
  %43 = getelementptr inbounds nuw i8, ptr %0, i64 448
  %44 = load i32, ptr %43, align 8
  %45 = and i32 %44, 255
  %46 = icmp eq i32 %45, 0
  br i1 %46, label %47, label %80

47:                                               ; preds = %42, %39
  br i1 %1, label %49, label %48

48:                                               ; preds = %47
  call void @assoc_mgr_lock(ptr noundef nonnull %3) #15
  br label %49

49:                                               ; preds = %48, %47
  %50 = getelementptr inbounds nuw i8, ptr %0, i64 72
  %51 = load ptr, ptr %50, align 8
  %.not44 = icmp eq ptr %51, null
  br i1 %.not44, label %52, label %56

52:                                               ; preds = %49
  %53 = call i32 @get_log_level() #15
  %54 = icmp sgt i32 %53, 4
  br i1 %54, label %55, label %78

55:                                               ; preds = %52
  call void (i32, ptr, ...) @log_var(i32 noundef 5, ptr noundef nonnull @.str.28, ptr noundef nonnull @__func__.acct_policy_handle_accrue_time, ptr noundef nonnull %0) #15
  br label %78

56:                                               ; preds = %49
  %57 = getelementptr inbounds nuw i8, ptr %0, i64 768
  %58 = load ptr, ptr %57, align 8
  call void @llvm.lifetime.start.p0(i64 80, ptr nonnull %4) #15
  %59 = getelementptr inbounds nuw i8, ptr %51, i64 8
  %60 = load ptr, ptr %59, align 8
  store ptr %60, ptr %4, align 8
  %61 = getelementptr inbounds nuw i8, ptr %4, i64 8
  store ptr %51, ptr %61, align 8
  %62 = getelementptr inbounds nuw i8, ptr %4, i64 16
  store i32 0, ptr %62, align 8
  %63 = getelementptr inbounds nuw i8, ptr %4, i64 20
  store i32 0, ptr %63, align 4
  %64 = getelementptr inbounds nuw i8, ptr %4, i64 24
  store ptr %0, ptr %64, align 8
  %65 = getelementptr inbounds nuw i8, ptr %4, i64 32
  %66 = getelementptr inbounds nuw i8, ptr %4, i64 40
  store i64 0, ptr %65, align 8
  store i64 %5, ptr %66, align 8
  %67 = getelementptr inbounds nuw i8, ptr %4, i64 48
  store ptr null, ptr %67, align 8
  %68 = getelementptr inbounds nuw i8, ptr %4, i64 56
  %69 = getelementptr inbounds nuw i8, ptr %0, i64 1096
  %70 = load i32, ptr %69, align 8
  store i32 %70, ptr %68, align 8
  %71 = getelementptr inbounds nuw i8, ptr %4, i64 60
  call void @llvm.memset.p0.i64(ptr noundef nonnull align 4 dereferenceable(20) %71, i8 0, i64 20, i1 false)
  call fastcc void @_set_highest_prio_qos_ptr(ptr noundef nonnull %0)
  call fastcc void @_handle_accrue_time(ptr noundef %4)
  %72 = load ptr, ptr %57, align 8
  %.not45 = icmp eq ptr %72, %58
  br i1 %.not45, label %77, label %73

73:                                               ; preds = %56
  store ptr %58, ptr %57, align 8
  %74 = getelementptr inbounds nuw i8, ptr %58, i64 16
  %75 = load i32, ptr %74, align 8
  %76 = getelementptr inbounds nuw i8, ptr %0, i64 752
  store i32 %75, ptr %76, align 8
  br label %77

77:                                               ; preds = %73, %56
  call void @llvm.lifetime.end.p0(i64 80, ptr nonnull %4) #15
  br label %78

78:                                               ; preds = %52, %55, %77
  %.033 = phi i32 [ 0, %77 ], [ -1, %55 ], [ -1, %52 ]
  br i1 %1, label %80, label %79

79:                                               ; preds = %78
  call void @assoc_mgr_unlock(ptr noundef nonnull %3) #15
  br label %80

80:                                               ; preds = %78, %79, %42, %28, %31, %35, %22, %25, %13, %16, %8
  %.0 = phi i32 [ -1, %8 ], [ 0, %16 ], [ 0, %13 ], [ 0, %25 ], [ 0, %22 ], [ 0, %35 ], [ 0, %31 ], [ 0, %28 ], [ 0, %42 ], [ %.033, %79 ], [ %.033, %78 ]
  call void @llvm.lifetime.end.p0(i64 28, ptr nonnull %3) #15
  ret i32 %.0
}